Certificate:
    Data:
        Version: 3 (0x2)
        Serial Number:
            8a:24:8f:c3:0e:a4:04:33:7e:47:a8:d3:2d:77:49:04
        Signature Algorithm: sha256WithRSAEncryption
        Issuer: CN=rasvpn
        Validity
            Not Before: Aug 28 15:52:57 2021 GMT
            Not After : Aug 12 15:52:57 2024 GMT
        Subject: CN=client
        Subject Public Key Info:
            Public Key Algorithm: rsaEncryption
                RSA Public-Key: (2048 bit)
                Modulus:
                    00:ba:f4:e5:8f:53:0b:a0:ef:5b:90:c3:36:5d:aa:
                    75:62:14:6f:9c:c8:b7:96:f7:3d:7e:2e:62:da:16:
                    2a:d4:02:1b:be:da:eb:4c:4b:85:e3:f1:ff:0c:4b:
                    50:ec:d3:a1:ef:56:74:6e:d0:40:4b:a3:25:15:cd:
                    55:fe:10:49:ce:f6:d3:c0:82:84:4b:62:91:d6:d9:
                    e7:bd:47:03:b0:c9:7a:2c:27:a8:46:89:4d:ee:07:
                    9b:41:32:85:a7:f9:b9:0b:ae:95:cf:2d:2d:21:0d:
                    99:31:e1:c9:54:c1:98:0d:07:33:6a:74:6d:af:fc:
                    f9:de:74:1c:e5:a9:7d:de:5e:e0:83:16:a8:55:6b:
                    02:06:0b:b4:6b:62:9f:d3:67:b8:60:0b:5d:75:af:
                    5d:79:e8:d9:55:04:31:66:78:68:d1:e1:e1:96:73:
                    68:bb:c2:97:fb:7a:27:b3:c2:b1:1f:d1:3b:86:76:
                    a1:d3:38:c5:43:21:4d:79:4f:68:e1:62:34:49:11:
                    88:cb:80:e2:a9:8d:89:7c:82:c1:65:fa:2e:df:ac:
                    a4:66:e7:1e:ae:83:c2:52:8e:de:80:42:ef:84:07:
                    2a:8e:03:b8:3a:e7:53:c1:bd:d5:48:f3:71:a7:ce:
                    c3:fb:e9:ee:a7:73:b7:cc:48:07:9c:36:fd:24:cd:
                    b1:41
                Exponent: 65537 (0x10001)
        X509v3 extensions:
            X509v3 Basic Constraints:
                CA:FALSE
            X509v3 Subject Key Identifier:
                DA:57:3E:2C:F1:48:92:E2:50:11:57:FB:E6:4D:80:F9:2B:50:B1:01
            X509v3 Authority Key Identifier:
                keyid:A4:F7:8E:41:AF:36:86:9F:68:C9:E6:17:1F:FC:57:6F:A4:C5:3E:6E
                DirName:/CN=rasvpn
                serial:79:79:02:D8:63:96:06:EE:CF:65:B3:02:2A:AC:26:95:A9:9E:3A:39

            X509v3 Extended Key Usage:
                TLS Web Client Authentication
            X509v3 Key Usage:
                Digital Signature
    Signature Algorithm: sha256WithRSAEncryption
         46:26:16:dd:a7:ef:84:54:ff:a4:36:51:10:63:7d:a8:4b:7d:
         63:4e:1e:0f:bb:67:d2:b3:56:0f:6c:78:25:ba:26:b6:ad:24:
         ec:49:73:ec:dc:c4:19:bc:7f:2d:91:1e:73:9c:e1:be:7a:ca:
         a0:4b:6d:3b:63:17:76:6a:00:3b:75:23:32:c6:6f:c5:57:4a:
         e6:86:fd:7c:e0:14:87:15:13:cf:62:f1:6e:11:a9:51:dd:e1:
         27:be:42:e7:06:6b:a7:43:83:b2:d8:7a:f2:7f:28:a0:39:a7:
         4d:96:7c:6e:8d:75:31:58:c3:65:79:75:7f:57:43:33:5a:03:
         5b:8a:ce:2f:f2:7d:cd:d5:21:04:f9:96:8f:27:a0:85:0f:ca:
         95:6b:29:e3:dd:1f:87:f9:4e:22:ff:ef:b4:bf:d0:21:0a:0a:
         5a:46:94:85:f9:33:ad:49:6b:7a:13:be:6c:05:09:59:4b:a2:
         55:9a:04:69:0a:67:67:30:4c:38:32:06:6d:0e:c3:6b:5b:f5:
         4b:e5:1b:12:94:9f:f9:cd:66:34:7a:6c:b0:8f:82:5e:3d:f2:
         30:a1:25:d9:67:4f:ab:ce:6c:a2:9e:72:0e:67:36:e7:75:19:
         bf:ab:de:67:a5:48:7d:b2:c9:f6:be:5d:e6:fa:5a:ac:97:1b:
         2e:8f:1d:85
-----BEGIN CERTIFICATE-----
MIIDSzCCAjOgAwIBAgIRAIokj8MOpAQzfkeo0y13SQQwDQYJKoZIhvcNAQELBQAw
ETEPMA0GA1UEAwwGcmFzdnBuMB4XDTIxMDgyODE1NTI1N1oXDTI0MDgxMjE1NTI1
N1owETEPMA0GA1UEAwwGY2xpZW50MIIBIjANBgkqhkiG9w0BAQEFAAOCAQ8AMIIB
CgKCAQEAuvTlj1MLoO9bkMM2Xap1YhRvnMi3lvc9fi5i2hYq1AIbvtrrTEuF4/H/
DEtQ7NOh71Z0btBAS6MlFc1V/hBJzvbTwIKES2KR1tnnvUcDsMl6LCeoRolN7geb
QTKFp/m5C66Vzy0tIQ2ZMeHJVMGYDQczanRtr/z53nQc5al93l7ggxaoVWsCBgu0
a2Kf02e4YAtdda9deejZVQQxZnho0eHhlnNou8KX+3ons8KxH9E7hnah0zjFQyFN
eU9o4WI0SRGIy4DiqY2JfILBZfou36ykZuceroPCUo7egELvhAcqjgO4OudTwb3V
SPNxp87D++nup3O3zEgHnDb9JM2xQQIDAQABo4GdMIGaMAkGA1UdEwQCMAAwHQYD
VR0OBBYEFNpXPizxSJLiUBFX++ZNgPkrULEBMEwGA1UdIwRFMEOAFKT3jkGvNoaf
aMnmFx/8V2+kxT5uoRWkEzARMQ8wDQYDVQQDDAZyYXN2cG6CFHl5Athjlgbuz2Wz
AiqsJpWpnjo5MBMGA1UdJQQMMAoGCCsGAQUFBwMCMAsGA1UdDwQEAwIHgDANBgkq
hkiG9w0BAQsFAAOCAQEARiYW3afvhFT/pDZREGN9qEt9Y04eD7tn0rNWD2x4Jbom
tq0k7Elz7NzEGbx/LZEec5zhvnrKoEttO2MXdmoAO3UjMsZvxVdK5ob9fOAUhxUT
z2LxbhGpUd3hJ75C5wZrp0ODsth68n8ooDmnTZZ8bo11MVjDZXl1f1dDM1oDW4rO
L/J9zdUhBPmWjyeghQ/KlWsp490fh/lOIv/vtL/QIQoKWkaUhfkzrUlrehO+bAUJ
WUuiVZoEaQpnZzBMODIGbQ7Da1v1S+UbEpSf+c1mNHpssI+CXj3yMKEl2WdPq85s
op5yDmc253UZv6veZ6VIfbLJ9r5d5vparJcbLo8dhQ==
-----END CERTIFICATE-----